; Function Attrs: mustprogress uwtable
define void @_ZNK32pxrInternal_v0_24__pxrReserved__12GfColorSpace7GetNameEv(ptr dead_on_unwind noalias writable sret(%"class.pxrInternal_v0_24__pxrReserved__::TfToken") align 8 %0, ptr noundef nonnull readonly align 8 captures(none) dereferenceable(16) %1) local_unnamed_addr #0 align 2 {
  %3 = alloca %struct.pxr_nc_1_0_ColorSpaceM33Descriptor, align 8
  %4 = load ptr, ptr %1, align 8
  %5 = load ptr, ptr %4, align 8
  %6 = call zeroext i1 @pxr_nc_1_0_GetColorSpaceM33Descriptor(ptr noundef %5, ptr noundef nonnull %3)
  br i1 %6, label %8, label %7

7:                                                ; preds = %2
  store ptr null, ptr %0, align 8
  br label %10

8:                                                ; preds = %2
  %9 = load ptr, ptr %3, align 8
  call void @_ZN32pxrInternal_v0_24__pxrReserved__7TfTokenC1EPKc(ptr noundef nonnull align 8 dereferenceable(8) %0, ptr noundef %9)
  br label %10

10:                                               ; preds = %8, %7
  ret void
}